target datalayout = "e-m:e-p270:32:32-p271:32:32-p272:64:64-i64:64-i128:128-f80:128-n8:16:32:64-S128"
target triple = "x86_64-pc-linux-gnu"

%struct.AVTXContext = type { i32, i32, ptr, ptr, ptr, ptr, [4 x ptr], i32, [4 x ptr], ptr, i32, i64, i32, float, double, ptr }
%struct.FFTXCodeletOptions = type { i32 }

; Function Attrs: nounwind uwtable
define i32 @ff_tx_gen_pfa_input_map(ptr noundef %0, ptr noundef %1, i32 noundef %2, i32 noundef %3) #0 {
  %5 = alloca i32, align 4
  %6 = alloca ptr, align 8
  %7 = alloca ptr, align 8
  %8 = alloca i32, align 4
  %9 = alloca i32, align 4
  %10 = alloca i32, align 4
  %11 = alloca i32, align 4
  %12 = alloca i32, align 4
  %13 = alloca i32, align 4
  %14 = alloca i32, align 4
  %15 = alloca i32, align 4
  %16 = alloca i32, align 4
  %17 = alloca i32, align 4
  %18 = alloca i32, align 4
  store ptr %0, ptr %6, align 8, !tbaa !4
  store ptr %1, ptr %7, align 8, !tbaa !9
  store i32 %2, ptr %8, align 4, !tbaa !11
  store i32 %3, ptr %9, align 4, !tbaa !11
  call void @llvm.lifetime.start.p0(i64 4, ptr %10) #11
  %19 = load i32, ptr %8, align 4, !tbaa !11
  %20 = load i32, ptr %9, align 4, !tbaa !11
  %21 = mul nsw i32 %19, %20
  store i32 %21, ptr %10, align 4, !tbaa !11
  %22 = load ptr, ptr %6, align 8, !tbaa !4
  %23 = getelementptr inbounds nuw %struct.AVTXContext, ptr %22, i32 0, i32 0
  %24 = load i32, ptr %23, align 8, !tbaa !13
  %25 = sext i32 %24 to i64
  %26 = mul i64 %25, 4
  %27 = call noalias ptr @av_malloc(i64 noundef %26)
  %28 = load ptr, ptr %6, align 8, !tbaa !4
  %29 = getelementptr inbounds nuw %struct.AVTXContext, ptr %28, i32 0, i32 2
  store ptr %27, ptr %29, align 8, !tbaa !20
  %30 = load ptr, ptr %6, align 8, !tbaa !4
  %31 = getelementptr inbounds nuw %struct.AVTXContext, ptr %30, i32 0, i32 2
  %32 = load ptr, ptr %31, align 8, !tbaa !20
  %33 = icmp ne ptr %32, null
  br i1 %33, label %35, label %34

34:                                               ; preds = %4
  store i32 -12, ptr %5, align 4
  store i32 1, ptr %11, align 4
  br label %216

35:                                               ; preds = %4
  call void @llvm.lifetime.start.p0(i64 4, ptr %12) #11
  store i32 0, ptr %12, align 4, !tbaa !11
  br label %36

36:                                               ; preds = %200, %35
  %37 = load i32, ptr %12, align 4, !tbaa !11
  %38 = load ptr, ptr %6, align 8, !tbaa !4
  %39 = getelementptr inbounds nuw %struct.AVTXContext, ptr %38, i32 0, i32 0
  %40 = load i32, ptr %39, align 8, !tbaa !13
  %41 = icmp slt i32 %37, %40
  br i1 %41, label %43, label %42

42:                                               ; preds = %36
  store i32 2, ptr %11, align 4
  call void @llvm.lifetime.end.p0(i64 4, ptr %12) #11
  br label %204

43:                                               ; preds = %36
  %44 = load ptr, ptr %6, align 8, !tbaa !4
  %45 = getelementptr inbounds nuw %struct.AVTXContext, ptr %44, i32 0, i32 1
  %46 = load i32, ptr %45, align 4, !tbaa !21
  %47 = icmp ne i32 %46, 0
  br i1 %47, label %56, label %48

48:                                               ; preds = %43
  %49 = load ptr, ptr %7, align 8, !tbaa !9
  %50 = icmp ne ptr %49, null
  br i1 %50, label %51, label %98

51:                                               ; preds = %48
  %52 = load ptr, ptr %7, align 8, !tbaa !9
  %53 = getelementptr inbounds nuw %struct.FFTXCodeletOptions, ptr %52, i32 0, i32 0
  %54 = load i32, ptr %53, align 4, !tbaa !22
  %55 = icmp eq i32 %54, 2
  br i1 %55, label %56, label %98

56:                                               ; preds = %51, %43
  call void @llvm.lifetime.start.p0(i64 4, ptr %13) #11
  store i32 0, ptr %13, align 4, !tbaa !11
  br label %57

57:                                               ; preds = %94, %56
  %58 = load i32, ptr %13, align 4, !tbaa !11
  %59 = load i32, ptr %9, align 4, !tbaa !11
  %60 = icmp slt i32 %58, %59
  br i1 %60, label %62, label %61

61:                                               ; preds = %57
  store i32 5, ptr %11, align 4
  call void @llvm.lifetime.end.p0(i64 4, ptr %13) #11
  br label %97

62:                                               ; preds = %57
  call void @llvm.lifetime.start.p0(i64 4, ptr %14) #11
  store i32 0, ptr %14, align 4, !tbaa !11
  br label %63

63:                                               ; preds = %90, %62
  %64 = load i32, ptr %14, align 4, !tbaa !11
  %65 = load i32, ptr %8, align 4, !tbaa !11
  %66 = icmp slt i32 %64, %65
  br i1 %66, label %68, label %67

67:                                               ; preds = %63
  store i32 8, ptr %11, align 4
  call void @llvm.lifetime.end.p0(i64 4, ptr %14) #11
  br label %93

68:                                               ; preds = %63
  %69 = load i32, ptr %13, align 4, !tbaa !11
  %70 = load i32, ptr %8, align 4, !tbaa !11
  %71 = mul nsw i32 %69, %70
  %72 = load i32, ptr %14, align 4, !tbaa !11
  %73 = add nsw i32 %71, %72
  %74 = load ptr, ptr %6, align 8, !tbaa !4
  %75 = getelementptr inbounds nuw %struct.AVTXContext, ptr %74, i32 0, i32 2
  %76 = load ptr, ptr %75, align 8, !tbaa !20
  %77 = load i32, ptr %12, align 4, !tbaa !11
  %78 = load i32, ptr %13, align 4, !tbaa !11
  %79 = load i32, ptr %8, align 4, !tbaa !11
  %80 = mul nsw i32 %78, %79
  %81 = load i32, ptr %14, align 4, !tbaa !11
  %82 = load i32, ptr %9, align 4, !tbaa !11
  %83 = mul nsw i32 %81, %82
  %84 = add nsw i32 %80, %83
  %85 = load i32, ptr %10, align 4, !tbaa !11
  %86 = srem i32 %84, %85
  %87 = add nsw i32 %77, %86
  %88 = sext i32 %87 to i64
  %89 = getelementptr inbounds i32, ptr %76, i64 %88
  store i32 %73, ptr %89, align 4, !tbaa !11
  br label %90

90:                                               ; preds = %68
  %91 = load i32, ptr %14, align 4, !tbaa !11
  %92 = add nsw i32 %91, 1
  store i32 %92, ptr %14, align 4, !tbaa !11
  br label %63, !llvm.loop !24

93:                                               ; preds = %67
  br label %94

94:                                               ; preds = %93
  %95 = load i32, ptr %13, align 4, !tbaa !11
  %96 = add nsw i32 %95, 1
  store i32 %96, ptr %13, align 4, !tbaa !11
  br label %57, !llvm.loop !26

97:                                               ; preds = %61
  br label %140

98:                                               ; preds = %51, %48
  call void @llvm.lifetime.start.p0(i64 4, ptr %15) #11
  store i32 0, ptr %15, align 4, !tbaa !11
  br label %99

99:                                               ; preds = %136, %98
  %100 = load i32, ptr %15, align 4, !tbaa !11
  %101 = load i32, ptr %9, align 4, !tbaa !11
  %102 = icmp slt i32 %100, %101
  br i1 %102, label %104, label %103

103:                                              ; preds = %99
  store i32 11, ptr %11, align 4
  call void @llvm.lifetime.end.p0(i64 4, ptr %15) #11
  br label %139

104:                                              ; preds = %99
  call void @llvm.lifetime.start.p0(i64 4, ptr %16) #11
  store i32 0, ptr %16, align 4, !tbaa !11
  br label %105

105:                                              ; preds = %132, %104
  %106 = load i32, ptr %16, align 4, !tbaa !11
  %107 = load i32, ptr %8, align 4, !tbaa !11
  %108 = icmp slt i32 %106, %107
  br i1 %108, label %110, label %109

109:                                              ; preds = %105
  store i32 14, ptr %11, align 4
  call void @llvm.lifetime.end.p0(i64 4, ptr %16) #11
  br label %135

110:                                              ; preds = %105
  %111 = load i32, ptr %15, align 4, !tbaa !11
  %112 = load i32, ptr %8, align 4, !tbaa !11
  %113 = mul nsw i32 %111, %112
  %114 = load i32, ptr %16, align 4, !tbaa !11
  %115 = load i32, ptr %9, align 4, !tbaa !11
  %116 = mul nsw i32 %114, %115
  %117 = add nsw i32 %113, %116
  %118 = load i32, ptr %10, align 4, !tbaa !11
  %119 = srem i32 %117, %118
  %120 = load ptr, ptr %6, align 8, !tbaa !4
  %121 = getelementptr inbounds nuw %struct.AVTXContext, ptr %120, i32 0, i32 2
  %122 = load ptr, ptr %121, align 8, !tbaa !20
  %123 = load i32, ptr %12, align 4, !tbaa !11
  %124 = load i32, ptr %15, align 4, !tbaa !11
  %125 = load i32, ptr %8, align 4, !tbaa !11
  %126 = mul nsw i32 %124, %125
  %127 = add nsw i32 %123, %126
  %128 = load i32, ptr %16, align 4, !tbaa !11
  %129 = add nsw i32 %127, %128
  %130 = sext i32 %129 to i64
  %131 = getelementptr inbounds i32, ptr %122, i64 %130
  store i32 %119, ptr %131, align 4, !tbaa !11
  br label %132

132:                                              ; preds = %110
  %133 = load i32, ptr %16, align 4, !tbaa !11
  %134 = add nsw i32 %133, 1
  store i32 %134, ptr %16, align 4, !tbaa !11
  br label %105, !llvm.loop !27

135:                                              ; preds = %109
  br label %136

136:                                              ; preds = %135
  %137 = load i32, ptr %15, align 4, !tbaa !11
  %138 = add nsw i32 %137, 1
  store i32 %138, ptr %15, align 4, !tbaa !11
  br label %99, !llvm.loop !28

139:                                              ; preds = %103
  br label %140

140:                                              ; preds = %139, %97
  %141 = load ptr, ptr %6, align 8, !tbaa !4
  %142 = getelementptr inbounds nuw %struct.AVTXContext, ptr %141, i32 0, i32 1
  %143 = load i32, ptr %142, align 4, !tbaa !21
  %144 = icmp ne i32 %143, 0
  br i1 %144, label %145, label %199

145:                                              ; preds = %140
  call void @llvm.lifetime.start.p0(i64 4, ptr %17) #11
  store i32 1, ptr %17, align 4, !tbaa !11
  br label %146

146:                                              ; preds = %195, %145
  %147 = load i32, ptr %17, align 4, !tbaa !11
  %148 = load i32, ptr %10, align 4, !tbaa !11
  %149 = ashr i32 %148, 1
  %150 = icmp sle i32 %147, %149
  br i1 %150, label %152, label %151

151:                                              ; preds = %146
  store i32 17, ptr %11, align 4
  call void @llvm.lifetime.end.p0(i64 4, ptr %17) #11
  br label %198

152:                                              ; preds = %146
  br label %153

153:                                              ; preds = %152
  call void @llvm.lifetime.start.p0(i64 4, ptr %18) #11
  %154 = load ptr, ptr %6, align 8, !tbaa !4
  %155 = getelementptr inbounds nuw %struct.AVTXContext, ptr %154, i32 0, i32 2
  %156 = load ptr, ptr %155, align 8, !tbaa !20
  %157 = load i32, ptr %12, align 4, !tbaa !11
  %158 = load i32, ptr %10, align 4, !tbaa !11
  %159 = add nsw i32 %157, %158
  %160 = load i32, ptr %17, align 4, !tbaa !11
  %161 = sub nsw i32 %159, %160
  %162 = sext i32 %161 to i64
  %163 = getelementptr inbounds i32, ptr %156, i64 %162
  %164 = load i32, ptr %163, align 4, !tbaa !11
  store i32 %164, ptr %18, align 4, !tbaa !11
  %165 = load ptr, ptr %6, align 8, !tbaa !4
  %166 = getelementptr inbounds nuw %struct.AVTXContext, ptr %165, i32 0, i32 2
  %167 = load ptr, ptr %166, align 8, !tbaa !20
  %168 = load i32, ptr %12, align 4, !tbaa !11
  %169 = load i32, ptr %17, align 4, !tbaa !11
  %170 = add nsw i32 %168, %169
  %171 = sext i32 %170 to i64
  %172 = getelementptr inbounds i32, ptr %167, i64 %171
  %173 = load i32, ptr %172, align 4, !tbaa !11
  %174 = load ptr, ptr %6, align 8, !tbaa !4
  %175 = getelementptr inbounds nuw %struct.AVTXContext, ptr %174, i32 0, i32 2
  %176 = load ptr, ptr %175, align 8, !tbaa !20
  %177 = load i32, ptr %12, align 4, !tbaa !11
  %178 = load i32, ptr %10, align 4, !tbaa !11
  %179 = add nsw i32 %177, %178
  %180 = load i32, ptr %17, align 4, !tbaa !11
  %181 = sub nsw i32 %179, %180
  %182 = sext i32 %181 to i64
  %183 = getelementptr inbounds i32, ptr %176, i64 %182
  store i32 %173, ptr %183, align 4, !tbaa !11
  %184 = load i32, ptr %18, align 4, !tbaa !11
  %185 = load ptr, ptr %6, align 8, !tbaa !4
  %186 = getelementptr inbounds nuw %struct.AVTXContext, ptr %185, i32 0, i32 2
  %187 = load ptr, ptr %186, align 8, !tbaa !20
  %188 = load i32, ptr %12, align 4, !tbaa !11
  %189 = load i32, ptr %17, align 4, !tbaa !11
  %190 = add nsw i32 %188, %189
  %191 = sext i32 %190 to i64
  %192 = getelementptr inbounds i32, ptr %187, i64 %191
  store i32 %184, ptr %192, align 4, !tbaa !11
  call void @llvm.lifetime.end.p0(i64 4, ptr %18) #11
  br label %193

193:                                              ; preds = %153
  br label %194

194:                                              ; preds = %193
  br label %195

195:                                              ; preds = %194
  %196 = load i32, ptr %17, align 4, !tbaa !11
  %197 = add nsw i32 %196, 1
  store i32 %197, ptr %17, align 4, !tbaa !11
  br label %146, !llvm.loop !29

198:                                              ; preds = %151
  br label %199

199:                                              ; preds = %198, %140
  br label %200

200:                                              ; preds = %199
  %201 = load i32, ptr %10, align 4, !tbaa !11
  %202 = load i32, ptr %12, align 4, !tbaa !11
  %203 = add nsw i32 %202, %201
  store i32 %203, ptr %12, align 4, !tbaa !11
  br label %36, !llvm.loop !30

204:                                              ; preds = %42
  %205 = load ptr, ptr %7, align 8, !tbaa !9
  %206 = icmp ne ptr %205, null
  br i1 %206, label %207, label %211

207:                                              ; preds = %204
  %208 = load ptr, ptr %7, align 8, !tbaa !9
  %209 = getelementptr inbounds nuw %struct.FFTXCodeletOptions, ptr %208, i32 0, i32 0
  %210 = load i32, ptr %209, align 4, !tbaa !22
  br label %212

211:                                              ; preds = %204
  br label %212

212:                                              ; preds = %211, %207
  %213 = phi i32 [ %210, %207 ], [ 1, %211 ]
  %214 = load ptr, ptr %6, align 8, !tbaa !4
  %215 = getelementptr inbounds nuw %struct.AVTXContext, ptr %214, i32 0, i32 12
  store i32 %213, ptr %215, align 8, !tbaa !31
  store i32 0, ptr %5, align 4
  store i32 1, ptr %11, align 4
  br label %216

216:                                              ; preds = %212, %34
  call void @llvm.lifetime.end.p0(i64 4, ptr %10) #11
  %217 = load i32, ptr %5, align 4
  ret i32 %217
}