; Function Attrs: nounwind uwtable
define range(i32 -12, 1) i32 @ff_tx_gen_pfa_input_map(ptr noundef captures(none) initializes((8, 16)) %0, ptr noundef readonly captures(address_is_null) %1, i32 noundef %2, i32 noundef %3) local_unnamed_addr #0 {
  %5 = mul i32 %3, %2
  %6 = load i32, ptr %0, align 8, !tbaa !4
  %7 = sext i32 %6 to i64
  %8 = shl nsw i64 %7, 2
  %9 = tail call noalias ptr @av_malloc(i64 noundef %8) #13
  %10 = getelementptr inbounds nuw i8, ptr %0, i64 8
  store ptr %9, ptr %10, align 8, !tbaa !16
  %.not = icmp eq ptr %9, null
  br i1 %.not, label %61, label %.preheader86

.preheader86:                                     ; preds = %4
  %11 = load i32, ptr %0, align 8, !tbaa !4
  %12 = icmp sgt i32 %11, 0
  br i1 %12, label %.lr.ph99, label %._crit_edge

.lr.ph99:                                         ; preds = %.preheader86
  %13 = getelementptr inbounds nuw i8, ptr %0, i64 4
  %14 = load i32, ptr %13, align 4, !tbaa !17
  %.not78 = icmp eq i32 %14, 0
  %.not79 = icmp eq ptr %1, null
  %15 = icmp slt i32 %3, 1
  %16 = icmp slt i32 %2, 1
  %17 = ashr i32 %5, 1
  %.not8192 = icmp slt i32 %17, 1
  %18 = zext i32 %3 to i64
  %19 = sext i32 %2 to i64
  %20 = add nsw i32 %17, 1
  %21 = sext i32 %5 to i64
  %22 = zext nneg i32 %11 to i64
  %wide.trip.count109 = zext nneg i32 %3 to i64
  %wide.trip.count = zext nneg i32 %2 to i64
  %brmerge = or i1 %.not78, %.not8192
  %wide.trip.count114 = zext nneg i32 %20 to i64
  %brmerge125 = or i1 %15, %16
  %brmerge128 = or i1 %15, %16
  br label %23

._crit_edge:                                      ; preds = %.loopexit, %.preheader86
  %.not77 = icmp eq ptr %1, null
  br i1 %.not77, label %58, label %56

23:                                               ; preds = %.lr.ph99, %.loopexit
  %indvars.iv116 = phi i64 [ 0, %.lr.ph99 ], [ %indvars.iv.next117.pre-phi, %.loopexit ]
  br i1 %.not78, label %24, label %28

24:                                               ; preds = %23
  br i1 %.not79, label %40, label %25

25:                                               ; preds = %24
  %26 = load i32, ptr %1, align 4, !tbaa !18
  %27 = icmp eq i32 %26, 2
  br i1 %27, label %28, label %40

28:                                               ; preds = %25, %23
  br i1 %brmerge125, label %.loopexit84, label %.preheader82.us.preheader

.preheader82.us.preheader:                        ; preds = %28
  %29 = getelementptr i32, ptr %9, i64 %indvars.iv116
  br label %.preheader82.us

.preheader82.us:                                  ; preds = %.preheader82.us.preheader, %._crit_edge.us
  %.07088.us = phi i32 [ %39, %._crit_edge.us ], [ 0, %.preheader82.us.preheader ]
  %30 = mul nuw nsw i32 %.07088.us, %2
  br label %31

31:                                               ; preds = %.preheader82.us, %31
  %.06987.us = phi i32 [ 0, %.preheader82.us ], [ %38, %31 ]
  %32 = add nuw nsw i32 %.06987.us, %30
  %33 = mul nuw nsw i32 %.06987.us, %3
  %34 = add nuw nsw i32 %33, %30
  %35 = urem i32 %34, %5
  %36 = zext nneg i32 %35 to i64
  %37 = getelementptr i32, ptr %29, i64 %36
  store i32 %32, ptr %37, align 4, !tbaa !20
  %38 = add nuw nsw i32 %.06987.us, 1
  %exitcond.not = icmp eq i32 %38, %2
  br i1 %exitcond.not, label %._crit_edge.us, label %31, !llvm.loop !21

._crit_edge.us:                                   ; preds = %31
  %39 = add nuw nsw i32 %.07088.us, 1
  %exitcond103.not = icmp eq i32 %39, %3
  br i1 %exitcond103.not, label %.loopexit84, label %.preheader82.us, !llvm.loop !23

40:                                               ; preds = %25, %24
  br i1 %brmerge128, label %.loopexit84..loopexit_crit_edge, label %.preheader.us.preheader

.preheader.us.preheader:                          ; preds = %40
  %invariant.gep = getelementptr i32, ptr %9, i64 %indvars.iv116
  br label %.preheader.us

.preheader.us:                                    ; preds = %.preheader.us.preheader, %._crit_edge.us91
  %indvars.iv106 = phi i64 [ 0, %.preheader.us.preheader ], [ %indvars.iv.next107, %._crit_edge.us91 ]
  %41 = mul nuw nsw i64 %indvars.iv106, %19
  %gep = getelementptr i32, ptr %invariant.gep, i64 %41
  br label %42

42:                                               ; preds = %.preheader.us, %42
  %indvars.iv = phi i64 [ 0, %.preheader.us ], [ %indvars.iv.next, %42 ]
  %43 = mul i64 %indvars.iv, %18
  %44 = add i64 %43, %41
  %45 = trunc i64 %44 to i32
  %46 = urem i32 %45, %5
  %47 = getelementptr i32, ptr %gep, i64 %indvars.iv
  store i32 %46, ptr %47, align 4, !tbaa !20
  %indvars.iv.next = add nuw nsw i64 %indvars.iv, 1
  %exitcond105.not = icmp eq i64 %indvars.iv.next, %wide.trip.count
  br i1 %exitcond105.not, label %._crit_edge.us91, label %42, !llvm.loop !24

._crit_edge.us91:                                 ; preds = %42
  %indvars.iv.next107 = add nuw nsw i64 %indvars.iv106, 1
  %exitcond110.not = icmp eq i64 %indvars.iv.next107, %wide.trip.count109
  br i1 %exitcond110.not, label %.loopexit84, label %.preheader.us, !llvm.loop !25

.loopexit84:                                      ; preds = %._crit_edge.us, %._crit_edge.us91, %28
  br i1 %brmerge, label %.loopexit84..loopexit_crit_edge, label %.lr.ph

.loopexit84..loopexit_crit_edge:                  ; preds = %40, %.loopexit84
  %.pre = add nsw i64 %indvars.iv116, %21
  br label %.loopexit

.lr.ph:                                           ; preds = %.loopexit84
  %48 = add nsw i64 %indvars.iv116, %21
  %invariant.gep121 = getelementptr i32, ptr %9, i64 %indvars.iv116
  br label %49

49:                                               ; preds = %.lr.ph, %49
  %indvars.iv111 = phi i64 [ 1, %.lr.ph ], [ %indvars.iv.next112, %49 ]
  %50 = sub i64 %48, %indvars.iv111
  %sext = shl i64 %50, 32
  %51 = ashr exact i64 %sext, 30
  %52 = getelementptr inbounds i8, ptr %9, i64 %51
  %53 = load i32, ptr %52, align 4, !tbaa !20
  %gep122 = getelementptr i32, ptr %invariant.gep121, i64 %indvars.iv111
  %54 = load i32, ptr %gep122, align 4, !tbaa !20
  store i32 %54, ptr %52, align 4, !tbaa !20
  store i32 %53, ptr %gep122, align 4, !tbaa !20
  %indvars.iv.next112 = add nuw nsw i64 %indvars.iv111, 1
  %exitcond115.not = icmp eq i64 %indvars.iv.next112, %wide.trip.count114
  br i1 %exitcond115.not, label %.loopexit, label %49, !llvm.loop !26

.loopexit:                                        ; preds = %49, %.loopexit84..loopexit_crit_edge
  %indvars.iv.next117.pre-phi = phi i64 [ %.pre, %.loopexit84..loopexit_crit_edge ], [ %48, %49 ]
  %55 = icmp slt i64 %indvars.iv.next117.pre-phi, %22
  br i1 %55, label %23, label %._crit_edge, !llvm.loop !27

56:                                               ; preds = %._crit_edge
  %57 = load i32, ptr %1, align 4, !tbaa !18
  br label %58

58:                                               ; preds = %._crit_edge, %56
  %59 = phi i32 [ %57, %56 ], [ 1, %._crit_edge ]
  %60 = getelementptr inbounds nuw i8, ptr %0, i64 136
  store i32 %59, ptr %60, align 8, !tbaa !28
  br label %61

61:                                               ; preds = %4, %58
  %.0 = phi i32 [ 0, %58 ], [ -12, %4 ]
  ret i32 %.0
}